target datalayout = "e-m:e-p270:32:32-p271:32:32-p272:64:64-i64:64-i128:128-f80:128-n8:16:32:64-S128"
target triple = "x86_64-unknown-linux-gnu"

%"struct.icu_75::FormattedStringBuilder::Field" = type { i8 }
%"class.icu_75::MaybeStackArray" = type <{ ptr, i32, i8, [40 x i8], [3 x i8] }>
%"class.icu_75::number::impl::MutablePatternModifier" = type { %"class.icu_75::number::impl::MicroPropsGenerator", %"class.icu_75::number::impl::Modifier", %"class.icu_75::number::impl::SymbolProvider", i8, ptr, %"struct.icu_75::FormattedStringBuilder::Field", i32, i8, i8, ptr, i32, %"class.icu_75::number::impl::CurrencySymbols", ptr, i32, i32, ptr, %"class.icu_75::UnicodeString" }
%"class.icu_75::number::impl::MicroPropsGenerator" = type { ptr }
%"class.icu_75::number::impl::Modifier" = type { ptr }
%"class.icu_75::number::impl::SymbolProvider" = type { ptr }
%"class.icu_75::number::impl::CurrencySymbols" = type { [8 x i8], %"class.icu_75::CurrencyUnit", %"class.icu_75::CharString", %"class.icu_75::UnicodeString", %"class.icu_75::UnicodeString" }
%"class.icu_75::CurrencyUnit" = type { %"class.icu_75::MeasureUnit.base", [4 x i16], [4 x i8] }
%"class.icu_75::MeasureUnit.base" = type <{ %"class.icu_75::UObject", ptr, i16, i8 }>
%"class.icu_75::UObject" = type { ptr }
%"class.icu_75::CharString" = type { %"class.icu_75::MaybeStackArray", i32, [4 x i8] }
%"class.icu_75::UnicodeString" = type { %"class.icu_75::Replaceable", %"union.icu_75::UnicodeString::StackBufferOrFields" }
%"class.icu_75::Replaceable" = type { %"class.icu_75::UObject" }
%"union.icu_75::UnicodeString::StackBufferOrFields" = type { %struct.anon.0, [32 x i8] }
%struct.anon.0 = type { i16, i32, i32, ptr }
%"class.icu_75::Locale" = type <{ %"class.icu_75::UObject", [12 x i8], [6 x i8], [4 x i8], [2 x i8], i32, [4 x i8], ptr, [157 x i8], [3 x i8], ptr, i8, [7 x i8] }>
%"class.icu_75::DecimalFormatSymbols" = type <{ %"class.icu_75::UObject", [29 x %"class.icu_75::UnicodeString"], %"class.icu_75::UnicodeString", i32, [4 x i8], %"class.icu_75::Locale", [157 x i8], [157 x i8], [6 x i8], ptr, [3 x %"class.icu_75::UnicodeString"], [3 x %"class.icu_75::UnicodeString"], i8, i8, [9 x i8], [5 x i8] }>

; Function Attrs: mustprogress uwtable
define linkonce_odr noundef nonnull align 8 dereferenceable(232) ptr @_ZN6icu_756number4impl15CurrencySymbolsaSEOS2_(ptr noundef nonnull align 8 dereferenceable(232) %this, ptr noundef nonnull align 8 dereferenceable(232) %0) #1 comdat align 2 {
entry:
  %this.addr = alloca ptr, align 8
  %.addr = alloca ptr, align 8
  store ptr %this, ptr %this.addr, align 8
  store ptr %0, ptr %.addr, align 8
  %this1 = load ptr, ptr %this.addr, align 8
  %fCurrency = getelementptr inbounds %"class.icu_75::number::impl::CurrencySymbols", ptr %this1, i32 0, i32 1
  %1 = load ptr, ptr %.addr, align 8
  %fCurrency2 = getelementptr inbounds %"class.icu_75::number::impl::CurrencySymbols", ptr %1, i32 0, i32 1
  %call = call noundef nonnull align 8 dereferenceable(28) ptr @_ZN6icu_7512CurrencyUnitaSERKS0_(ptr noundef nonnull align 8 dereferenceable(28) %fCurrency, ptr noundef nonnull align 8 dereferenceable(28) %fCurrency2)
  %fLocaleName = getelementptr inbounds %"class.icu_75::number::impl::CurrencySymbols", ptr %this1, i32 0, i32 2
  %2 = load ptr, ptr %.addr, align 8
  %fLocaleName3 = getelementptr inbounds %"class.icu_75::number::impl::CurrencySymbols", ptr %2, i32 0, i32 2
  %call4 = call noundef nonnull align 8 dereferenceable(60) ptr @_ZN6icu_7510CharStringaSEOS0_(ptr noundef nonnull align 8 dereferenceable(60) %fLocaleName, ptr noundef nonnull align 8 dereferenceable(60) %fLocaleName3) #12
  %fCurrencySymbol = getelementptr inbounds %"class.icu_75::number::impl::CurrencySymbols", ptr %this1, i32 0, i32 3
  %3 = load ptr, ptr %.addr, align 8
  %fCurrencySymbol5 = getelementptr inbounds %"class.icu_75::number::impl::CurrencySymbols", ptr %3, i32 0, i32 3
  %call6 = call noundef nonnull align 8 dereferenceable(64) ptr @_ZN6icu_7513UnicodeStringaSEOS0_(ptr noundef nonnull align 8 dereferenceable(64) %fCurrencySymbol, ptr noundef nonnull align 8 dereferenceable(64) %fCurrencySymbol5) #12
  %fIntlCurrencySymbol = getelementptr inbounds %"class.icu_75::number::impl::CurrencySymbols", ptr %this1, i32 0, i32 4
  %4 = load ptr, ptr %.addr, align 8
  %fIntlCurrencySymbol7 = getelementptr inbounds %"class.icu_75::number::impl::CurrencySymbols", ptr %4, i32 0, i32 4
  %call8 = call noundef nonnull align 8 dereferenceable(64) ptr @_ZN6icu_7513UnicodeStringaSEOS0_(ptr noundef nonnull align 8 dereferenceable(64) %fIntlCurrencySymbol, ptr noundef nonnull align 8 dereferenceable(64) %fIntlCurrencySymbol7) #12
  ret ptr %this1
}

; Function Attrs: mustprogress uwtable
define linkonce_odr void @_ZNK6icu_7520DecimalFormatSymbols9getLocaleEv(ptr noalias sret(%"class.icu_75::Locale") align 8 %agg.result, ptr noundef nonnull align 8 dereferenceable(2883) %this) #1 comdat align 2 {
entry:
  %result.ptr = alloca ptr, align 8
  %this.addr = alloca ptr, align 8
  store ptr %agg.result, ptr %result.ptr, align 8
  store ptr %this, ptr %this.addr, align 8
  %this1 = load ptr, ptr %this.addr, align 8
  %locale = getelementptr inbounds %"class.icu_75::DecimalFormatSymbols", ptr %this1, i32 0, i32 5
  call void @_ZN6icu_756LocaleC1ERKS0_(ptr noundef nonnull align 8 dereferenceable(217) %agg.result, ptr noundef nonnull align 8 dereferenceable(217) %locale)
  ret void
}

; Function Attrs: mustprogress uwtable
define void @_ZN6icu_756number4impl22MutablePatternModifier10setSymbolsEPKNS_20DecimalFormatSymbolsERKNS_12CurrencyUnitE16UNumberUnitWidthPKNS_11PluralRulesER10UErrorCode(ptr noundef nonnull align 8 dereferenceable(392) %this, ptr noundef %symbols, ptr noundef nonnull align 8 dereferenceable(28) %currency, i32 noundef %unitWidth, ptr noundef %rules, ptr noundef nonnull align 4 dereferenceable(4) %status) #1 align 2 personality ptr @__gxx_personality_v0 {
entry:
  %this.addr = alloca ptr, align 8
  %symbols.addr = alloca ptr, align 8
  %currency.addr = alloca ptr, align 8
  %unitWidth.addr = alloca i32, align 4
  %rules.addr = alloca ptr, align 8
  %status.addr = alloca ptr, align 8
  %ref.tmp = alloca %"class.icu_75::number::impl::CurrencySymbols", align 8
  %agg.tmp = alloca %"class.icu_75::CurrencyUnit", align 8
  %ref.tmp2 = alloca %"class.icu_75::Locale", align 8
  %exn.slot = alloca ptr, align 8
  %ehselector.slot = alloca i32, align 4
  store ptr %this, ptr %this.addr, align 8
  store ptr %symbols, ptr %symbols.addr, align 8
  store ptr %currency, ptr %currency.addr, align 8
  store i32 %unitWidth, ptr %unitWidth.addr, align 4
  store ptr %rules, ptr %rules.addr, align 8
  store ptr %status, ptr %status.addr, align 8
  %this1 = load ptr, ptr %this.addr, align 8
  %0 = load ptr, ptr %symbols.addr, align 8
  %fSymbols = getelementptr inbounds %"class.icu_75::number::impl::MutablePatternModifier", ptr %this1, i32 0, i32 9
  store ptr %0, ptr %fSymbols, align 8
  %1 = load ptr, ptr %currency.addr, align 8
  call void @_ZN6icu_7512CurrencyUnitC1ERKS0_(ptr noundef nonnull align 8 dereferenceable(28) %agg.tmp, ptr noundef nonnull align 8 dereferenceable(28) %1)
  %2 = load ptr, ptr %symbols.addr, align 8
  invoke void @_ZNK6icu_7520DecimalFormatSymbols9getLocaleEv(ptr sret(%"class.icu_75::Locale") align 8 %ref.tmp2, ptr noundef nonnull align 8 dereferenceable(2883) %2)
          to label %invoke.cont unwind label %lpad

invoke.cont:                                      ; preds = %entry
  %3 = load ptr, ptr %symbols.addr, align 8
  %4 = load ptr, ptr %status.addr, align 8
  invoke void @_ZN6icu_756number4impl15CurrencySymbolsC1ENS_12CurrencyUnitERKNS_6LocaleERKNS_20DecimalFormatSymbolsER10UErrorCode(ptr noundef nonnull align 8 dereferenceable(232) %ref.tmp, ptr noundef %agg.tmp, ptr noundef nonnull align 8 dereferenceable(217) %ref.tmp2, ptr noundef nonnull align 8 dereferenceable(2883) %3, ptr noundef nonnull align 4 dereferenceable(4) %4)
          to label %invoke.cont4 unwind label %lpad3

invoke.cont4:                                     ; preds = %invoke.cont
  %fCurrencySymbols = getelementptr inbounds %"class.icu_75::number::impl::MutablePatternModifier", ptr %this1, i32 0, i32 11
  %call = invoke noundef nonnull align 8 dereferenceable(232) ptr @_ZN6icu_756number4impl15CurrencySymbolsaSEOS2_(ptr noundef nonnull align 8 dereferenceable(232) %fCurrencySymbols, ptr noundef nonnull align 8 dereferenceable(232) %ref.tmp)
          to label %invoke.cont6 unwind label %lpad5

invoke.cont6:                                     ; preds = %invoke.cont4
  call void @_ZN6icu_756number4impl15CurrencySymbolsD2Ev(ptr noundef nonnull align 8 dereferenceable(232) %ref.tmp) #12
  call void @_ZN6icu_756LocaleD1Ev(ptr noundef nonnull align 8 dereferenceable(217) %ref.tmp2) #12
  call void @_ZN6icu_7512CurrencyUnitD1Ev(ptr noundef nonnull align 8 dereferenceable(28) %agg.tmp) #12
  %5 = load i32, ptr %unitWidth.addr, align 4
  %fUnitWidth = getelementptr inbounds %"class.icu_75::number::impl::MutablePatternModifier", ptr %this1, i32 0, i32 10
  store i32 %5, ptr %fUnitWidth, align 8
  %6 = load ptr, ptr %rules.addr, align 8
  %fRules = getelementptr inbounds %"class.icu_75::number::impl::MutablePatternModifier", ptr %this1, i32 0, i32 12
  store ptr %6, ptr %fRules, align 8
  ret void

lpad:                                             ; preds = %entry
  %7 = landingpad { ptr, i32 }
          cleanup
  %8 = extractvalue { ptr, i32 } %7, 0
  store ptr %8, ptr %exn.slot, align 8
  %9 = extractvalue { ptr, i32 } %7, 1
  store i32 %9, ptr %ehselector.slot, align 4
  br label %ehcleanup7

lpad3:                                            ; preds = %invoke.cont
  %10 = landingpad { ptr, i32 }
          cleanup
  %11 = extractvalue { ptr, i32 } %10, 0
  store ptr %11, ptr %exn.slot, align 8
  %12 = extractvalue { ptr, i32 } %10, 1
  store i32 %12, ptr %ehselector.slot, align 4
  br label %ehcleanup

lpad5:                                            ; preds = %invoke.cont4
  %13 = landingpad { ptr, i32 }
          cleanup
  %14 = extractvalue { ptr, i32 } %13, 0
  store ptr %14, ptr %exn.slot, align 8
  %15 = extractvalue { ptr, i32 } %13, 1
  store i32 %15, ptr %ehselector.slot, align 4
  call void @_ZN6icu_756number4impl15CurrencySymbolsD2Ev(ptr noundef nonnull align 8 dereferenceable(232) %ref.tmp) #12
  br label %ehcleanup

ehcleanup:                                        ; preds = %lpad5, %lpad3
  call void @_ZN6icu_756LocaleD1Ev(ptr noundef nonnull align 8 dereferenceable(217) %ref.tmp2) #12
  br label %ehcleanup7

ehcleanup7:                                       ; preds = %ehcleanup, %lpad
  call void @_ZN6icu_7512CurrencyUnitD1Ev(ptr noundef nonnull align 8 dereferenceable(28) %agg.tmp) #12
  br label %eh.resume

eh.resume:                                        ; preds = %ehcleanup7
  %exn = load ptr, ptr %exn.slot, align 8
  %sel = load i32, ptr %ehselector.slot, align 4
  %lpad.val = insertvalue { ptr, i32 } poison, ptr %exn, 0
  %lpad.val8 = insertvalue { ptr, i32 } %lpad.val, i32 %sel, 1
  resume { ptr, i32 } %lpad.val8
}