; Function Attrs: mustprogress uwtable
define void @_ZN6icu_756number4impl22MutablePatternModifier10setSymbolsEPKNS_20DecimalFormatSymbolsERKNS_12CurrencyUnitE16UNumberUnitWidthPKNS_11PluralRulesER10UErrorCode(ptr noundef nonnull align 8 dereferenceable(392) %this, ptr noundef %symbols, ptr noundef nonnull align 8 dereferenceable(28) %currency, i32 noundef %unitWidth, ptr noundef %rules, ptr noundef nonnull align 4 dereferenceable(4) %status) local_unnamed_addr #1 align 2 personality ptr @__gxx_personality_v0 {
entry:
  %ref.tmp = alloca %"class.icu_75::number::impl::CurrencySymbols", align 8
  %agg.tmp = alloca %"class.icu_75::CurrencyUnit", align 8
  %ref.tmp2 = alloca %"class.icu_75::Locale", align 8
  %fSymbols = getelementptr inbounds i8, ptr %this, i64 56
  store ptr %symbols, ptr %fSymbols, align 8
  call void @_ZN6icu_7512CurrencyUnitC1ERKS0_(ptr noundef nonnull align 8 dereferenceable(28) %agg.tmp, ptr noundef nonnull align 8 dereferenceable(28) %currency)
  %locale.i = getelementptr inbounds i8, ptr %symbols, i64 1936
  invoke void @_ZN6icu_756LocaleC1ERKS0_(ptr noundef nonnull align 8 dereferenceable(217) %ref.tmp2, ptr noundef nonnull align 8 dereferenceable(217) %locale.i)
          to label %invoke.cont unwind label %lpad

invoke.cont:                                      ; preds = %entry
  invoke void @_ZN6icu_756number4impl15CurrencySymbolsC1ENS_12CurrencyUnitERKNS_6LocaleERKNS_20DecimalFormatSymbolsER10UErrorCode(ptr noundef nonnull align 8 dereferenceable(232) %ref.tmp, ptr noundef nonnull %agg.tmp, ptr noundef nonnull align 8 dereferenceable(217) %ref.tmp2, ptr noundef nonnull align 8 dereferenceable(2883) %symbols, ptr noundef nonnull align 4 dereferenceable(4) %status)
          to label %invoke.cont4 unwind label %lpad3

invoke.cont4:                                     ; preds = %invoke.cont
  %fCurrency.i = getelementptr inbounds i8, ptr %this, i64 80
  %fCurrency2.i = getelementptr inbounds i8, ptr %ref.tmp, i64 8
  %call.i5 = invoke noundef nonnull align 8 dereferenceable(28) ptr @_ZN6icu_7512CurrencyUnitaSERKS0_(ptr noundef nonnull align 8 dereferenceable(28) %fCurrency.i, ptr noundef nonnull align 8 dereferenceable(28) %fCurrency2.i)
          to label %invoke.cont6 unwind label %lpad5

invoke.cont6:                                     ; preds = %invoke.cont4
  %fLocaleName.i = getelementptr inbounds i8, ptr %this, i64 112
  %fLocaleName3.i = getelementptr inbounds i8, ptr %ref.tmp, i64 40
  %call4.i = call noundef nonnull align 8 dereferenceable(60) ptr @_ZN6icu_7510CharStringaSEOS0_(ptr noundef nonnull align 8 dereferenceable(60) %fLocaleName.i, ptr noundef nonnull align 8 dereferenceable(60) %fLocaleName3.i) #21
  %fCurrencySymbol.i = getelementptr inbounds i8, ptr %this, i64 176
  %fCurrencySymbol5.i = getelementptr inbounds i8, ptr %ref.tmp, i64 104
  %call6.i = call noundef nonnull align 8 dereferenceable(64) ptr @_ZN6icu_7513UnicodeStringaSEOS0_(ptr noundef nonnull align 8 dereferenceable(64) %fCurrencySymbol.i, ptr noundef nonnull align 8 dereferenceable(64) %fCurrencySymbol5.i) #21
  %fIntlCurrencySymbol.i = getelementptr inbounds i8, ptr %this, i64 240
  %fIntlCurrencySymbol7.i = getelementptr inbounds i8, ptr %ref.tmp, i64 168
  %call8.i = call noundef nonnull align 8 dereferenceable(64) ptr @_ZN6icu_7513UnicodeStringaSEOS0_(ptr noundef nonnull align 8 dereferenceable(64) %fIntlCurrencySymbol.i, ptr noundef nonnull align 8 dereferenceable(64) %fIntlCurrencySymbol7.i) #21
  call void @_ZN6icu_7513UnicodeStringD1Ev(ptr noundef nonnull align 8 dereferenceable(64) %fIntlCurrencySymbol7.i) #21
  call void @_ZN6icu_7513UnicodeStringD1Ev(ptr noundef nonnull align 8 dereferenceable(64) %fCurrencySymbol5.i) #21
  call void @_ZN6icu_7515MaybeStackArrayIcLi40EED1Ev(ptr noundef nonnull align 8 dereferenceable(53) %fLocaleName3.i) #21
  call void @_ZN6icu_7512CurrencyUnitD1Ev(ptr noundef nonnull align 8 dereferenceable(28) %fCurrency2.i) #21
  call void @_ZN6icu_756LocaleD1Ev(ptr noundef nonnull align 8 dereferenceable(217) %ref.tmp2) #21
  call void @_ZN6icu_7512CurrencyUnitD1Ev(ptr noundef nonnull align 8 dereferenceable(28) %agg.tmp) #21
  %fUnitWidth = getelementptr inbounds i8, ptr %this, i64 64
  store i32 %unitWidth, ptr %fUnitWidth, align 8
  %fRules = getelementptr inbounds i8, ptr %this, i64 304
  store ptr %rules, ptr %fRules, align 8
  ret void

lpad:                                             ; preds = %entry
  %0 = landingpad { ptr, i32 }
          cleanup
  br label %ehcleanup7

lpad3:                                            ; preds = %invoke.cont
  %1 = landingpad { ptr, i32 }
          cleanup
  br label %ehcleanup

lpad5:                                            ; preds = %invoke.cont4
  %2 = landingpad { ptr, i32 }
          cleanup
  call void @_ZN6icu_756number4impl15CurrencySymbolsD2Ev(ptr noundef nonnull align 8 dereferenceable(232) %ref.tmp) #21
  br label %ehcleanup

ehcleanup:                                        ; preds = %lpad5, %lpad3
  %.pn = phi { ptr, i32 } [ %2, %lpad5 ], [ %1, %lpad3 ]
  call void @_ZN6icu_756LocaleD1Ev(ptr noundef nonnull align 8 dereferenceable(217) %ref.tmp2) #21
  br label %ehcleanup7

ehcleanup7:                                       ; preds = %ehcleanup, %lpad
  %.pn.pn = phi { ptr, i32 } [ %.pn, %ehcleanup ], [ %0, %lpad ]
  call void @_ZN6icu_7512CurrencyUnitD1Ev(ptr noundef nonnull align 8 dereferenceable(28) %agg.tmp) #21
  resume { ptr, i32 } %.pn.pn
}